Certificate:
    Data:
        Version: 3 (0x2)
        Serial Number: 1 (0x1)
        Signature Algorithm: sha1WithRSAEncryption
        Issuer: C=CN, ST=Jiangsu, L=Yangzhou, O=Your Company Name, OU=Your Root CA
        Validity
            Not Before: May 18 08:36:31 2017 GMT
            Not After : May 18 08:36:31 2018 GMT
        Subject: C=CN, ST=Jiangsu, O=Your Company Name, OU=abc.com, CN=abc.com
        Subject Public Key Info:
            Public Key Algorithm: rsaEncryption
            RSA Public Key: (2048 bit)
                Modulus (2048 bit):
                    00:ba:4d:1c:c0:6b:e1:66:e1:fe:40:b1:38:d3:5c:
                    73:4b:32:77:e7:b3:d3:8f:59:12:90:7a:29:c0:7c:
                    23:c9:34:f2:1b:32:18:30:da:93:dd:e8:b7:6e:3a:
                    b1:5f:3d:39:b4:fb:03:37:3b:79:75:fe:82:57:b4:
                    bf:bb:19:91:23:fb:fd:37:60:74:05:fe:a3:fa:9d:
                    64:dc:99:9a:57:01:69:56:1a:64:7f:bb:75:d0:2e:
                    7e:2f:bb:96:24:93:60:49:a6:fb:71:2b:a9:a5:b0:
                    f8:73:d1:15:7b:7a:13:57:37:cd:0c:d9:69:79:e1:
                    aa:48:86:39:00:12:b7:21:52:77:ac:83:54:c2:55:
                    9d:5b:d4:2a:4b:61:de:1d:07:d3:6e:3b:1c:c4:4a:
                    9b:83:7a:45:67:ac:2c:c7:62:46:2b:99:1a:a7:3e:
                    16:17:26:77:47:21:8c:95:cc:93:d3:93:6b:c0:7d:
                    b8:23:26:24:9d:b8:21:39:89:0a:4f:42:e1:c2:2b:
                    bb:9e:53:7f:25:60:b0:7f:95:8f:50:ab:fa:29:60:
                    0c:67:ce:5c:b1:73:5d:5b:8f:38:61:fa:0b:57:4b:
                    67:c5:fe:2b:4c:40:2f:0a:08:88:f6:91:b1:1c:d9:
                    a2:5f:c1:ee:db:a8:b4:94:42:8f:ef:b8:f1:77:19:
                    d1:7b
                Exponent: 65537 (0x10001)
        X509v3 extensions:
            X509v3 Basic Constraints: 
                CA:FALSE
            Netscape Comment: 
                OpenSSL Generated Certificate
            X509v3 Subject Key Identifier: 
                29:3E:08:14:1C:15:C0:E7:2E:06:68:85:22:AA:4F:87:D6:7E:34:A7
            X509v3 Authority Key Identifier: 
                keyid:27:AE:EE:84:00:98:A4:11:70:8F:77:84:2B:2B:2F:C9:46:8A:5B:5E

    Signature Algorithm: sha1WithRSAEncryption
        4e:91:2a:ce:7d:d5:03:ce:b5:e6:cc:ab:14:dd:15:8e:42:b7:
        f2:a9:d9:a5:2f:4f:f0:75:61:74:c2:6a:25:58:a8:e5:28:19:
        8e:71:53:2e:a4:f6:59:91:1b:f4:5c:ec:05:67:62:20:38:87:
        6b:a8:ea:23:5a:8b:d4:c3:d7:eb:b3:2f:bb:a0:35:a9:b0:11:
        6e:b4:64:18:09:42:3b:62:fa:0b:7b:92:c6:62:c4:cc:45:e6:
        20:87:e5:32:85:2f:3f:ce:b2:ba:3b:33:30:59:cc:2f:22:7d:
        c9:7b:3c:bc:52:2b:c5:6a:41:53:d2:21:a4:52:ea:55:b1:e8:
        64:ad:c9:ae:13:6e:aa:9a:42:78:11:af:39:f8:7b:e5:b5:47:
        11:ba:ff:7d:3d:84:89:1d:f6:b9:01:9f:c3:5a:53:1b:46:3e:
        f0:03:6d:dc:45:70:e5:d2:a9:e2:09:64:d8:c6:b6:d5:7b:8d:
        51:67:59:9a:39:d2:f2:54:bf:ff:3d:55:d7:99:b1:32:63:9f:
        eb:12:92:1e:aa:b0:38:f3:88:ec:4a:d6:12:93:4a:db:f0:57:
        7a:7c:1d:f3:65:98:21:bc:57:2e:e4:68:b8:19:f6:dd:7b:e5:
        11:4e:cb:26:ae:cd:04:24:5d:15:b8:42:04:45:65:ee:83:71:
        46:2c:59:b4
-----BEGIN CERTIFICATE-----
MIIDujCCAqKgAwIBAgIBATANBgkqhkiG9w0BAQUFADBlMQswCQYDVQQGEwJDTjEQ
MA4GA1UECBMHSmlhbmdzdTERMA8GA1UEBxMIWWFuZ3pob3UxGjAYBgNVBAoTEVlv
dXIgQ29tcGFueSBOYW1lMRUwEwYDVQQLEwxZb3VyIFJvb3QgQ0EwHhcNMTcwNTE4
MDgzNjMxWhcNMTgwNTE4MDgzNjMxWjBfMQswCQYDVQQGEwJDTjEQMA4GA1UECBMH
SmlhbmdzdTEaMBgGA1UEChMRWW91ciBDb21wYW55IE5hbWUxEDAOBgNVBAsTB2Fi
Yy5jb20xEDAOBgNVBAMTB2FiYy5jb20wggEiMA0GCSqGSIb3DQEBAQUAA4IBDwAw
ggEKAoIBAQC6TRzAa+Fm4f5AsTjTXHNLMnfns9OPWRKQeinAfCPJNPIbMhgw2pPd
6LduOrFfPTm0+wM3O3l1/oJXtL+7GZEj+/03YHQF/qP6nWTcmZpXAWlWGmR/u3XQ
Ln4vu5Ykk2BJpvtxK6mlsPhz0RV7ehNXN80M2Wl54apIhjkAErchUnesg1TCVZ1b
1CpLYd4dB9NuOxzESpuDekVnrCzHYkYrmRqnPhYXJndHIYyVzJPTk2vAfbgjJiSd
uCE5iQpPQuHCK7ueU38lYLB/lY9Qq/opYAxnzlyxc11bjzhh+gtXS2fF/itMQC8K
CIj2kbEc2aJfwe7bqLSUQo/vuPF3GdF7AgMBAAGjezB5MAkGA1UdEwQCMAAwLAYJ
YIZIAYb4QgENBB8WHU9wZW5TU0wgR2VuZXJhdGVkIENlcnRpZmljYXRlMB0GA1Ud
DgQWBBQpPggUHBXA5y4GaIUiqk+H1n40pzAfBgNVHSMEGDAWgBQnru6EAJikEXCP
d4QrKy/JRopbXjANBgkqhkiG9w0BAQUFAAOCAQEATpEqzn3VA8615syrFN0VjkK3
8qnZpS9P8HVhdMJqJVio5SgZjnFTLqT2WZEb9FzsBWdiIDiHa6jqI1qL1MPX67Mv
u6A1qbARbrRkGAlCO2L6C3uSxmLEzEXmIIflMoUvP86yujszMFnMLyJ9yXs8vFIr
xWpBU9IhpFLqVbHoZK3JrhNuqppCeBGvOfh75bVHEbr/fT2EiR32uQGfw1pTG0Y+
8ANt3EVw5dKp4glk2Ma21XuNUWdZmjnS8lS//z1V15mxMmOf6xKSHqqwOPOI7ErW
EpNK2/BXenwd82WYIbxXLuRouBn23XvlEU7LJq7NBCRdFbhCBEVl7oNxRixZtA==
-----END CERTIFICATE-----
